; Function Attrs: mustprogress uwtable
define hidden noundef zeroext i1 @_ZN4lean22is_anonymous_inst_nameERKNS_4nameE(ptr noundef nonnull align 8 dereferenceable(8) %0) local_unnamed_addr #0 personality ptr @__gxx_personality_v0 {
  %2 = alloca %"class.lean::name", align 8
  call void @llvm.lifetime.start.p0(i64 8, ptr nonnull %2) #10
  call void @_ZNK4lean4name8get_rootEv(ptr dead_on_unwind nonnull writable sret(%"class.lean::name") align 8 %2, ptr noundef nonnull align 8 dereferenceable(8) %0)
  %3 = load ptr, ptr %2, align 8, !tbaa !3
  %4 = ptrtoint ptr %3 to i64
  %5 = and i64 %4, 1
  %.not.i.i.i.i.i = icmp eq i64 %5, 0
  br i1 %.not.i.i.i.i.i, label %9, label %6

6:                                                ; preds = %1
  %7 = lshr i64 %4, 1
  %8 = trunc i64 %7 to i32
  br label %12

9:                                                ; preds = %1
  %10 = getelementptr i8, ptr %3, i64 4
  %.val.i.i.i.i.i = load i32, ptr %10, align 4
  %11 = lshr i32 %.val.i.i.i.i.i, 24
  br label %12

12:                                               ; preds = %9, %6
  %.0.i.i.i.i.i = phi i32 [ %8, %6 ], [ %11, %9 ]
  %13 = icmp eq i32 %.0.i.i.i.i.i, 1
  br i1 %13, label %14, label %26

14:                                               ; preds = %12
  %15 = getelementptr inbounds nuw i8, ptr %3, i64 16
  %16 = load ptr, ptr %15, align 8, !tbaa !3
  %17 = getelementptr inbounds nuw i8, ptr %16, i64 32
  %18 = load ptr, ptr @_ZN4leanL28g_anonymous_inst_name_prefixE, align 8, !tbaa !12
  %19 = load ptr, ptr %18, align 8, !tbaa !3
  %20 = getelementptr inbounds nuw i8, ptr %19, i64 16
  %21 = load ptr, ptr %20, align 8, !tbaa !3
  %22 = getelementptr inbounds nuw i8, ptr %21, i64 32
  %23 = call i64 @strlen(ptr noundef nonnull dereferenceable(1) %22) #11
  %24 = call i32 @strncmp(ptr noundef nonnull %17, ptr noundef nonnull %22, i64 noundef %23) #11
  %25 = icmp eq i32 %24, 0
  br label %26

26:                                               ; preds = %12, %14
  %.0 = phi i1 [ %25, %14 ], [ false, %12 ]
  br i1 %.not.i.i.i.i.i, label %27, label %_ZN4lean10object_refD2Ev.exit

27:                                               ; preds = %26
  %28 = load i32, ptr %3, align 4, !tbaa !8
  %29 = icmp sgt i32 %28, 1
  br i1 %29, label %30, label %32, !prof !11

30:                                               ; preds = %27
  %31 = add nsw i32 %28, -1
  store i32 %31, ptr %3, align 4, !tbaa !8
  br label %_ZN4lean10object_refD2Ev.exit

32:                                               ; preds = %27
  %.not.i.i.i = icmp eq i32 %28, 0
  br i1 %.not.i.i.i, label %_ZN4lean10object_refD2Ev.exit, label %33

33:                                               ; preds = %32
  invoke void @lean_dec_ref_cold(ptr noundef nonnull %3)
          to label %_ZN4lean10object_refD2Ev.exit unwind label %34

34:                                               ; preds = %33
  %35 = landingpad { ptr, i32 }
          catch ptr null
  %36 = extractvalue { ptr, i32 } %35, 0
  call void @__clang_call_terminate(ptr %36) #12
  unreachable

_ZN4lean10object_refD2Ev.exit:                    ; preds = %26, %30, %32, %33
  call void @llvm.lifetime.end.p0(i64 8, ptr nonnull %2) #10
  ret i1 %.0
}